target datalayout = "e-m:e-p270:32:32-p271:32:32-p272:64:64-i64:64-i128:128-f80:128-n8:16:32:64-S128"
target triple = "x86_64-pc-linux-gnu"

%struct.dt_pthread_mutex_t = type { %union.pthread_mutex_t }
%union.pthread_mutex_t = type { %struct.__pthread_mutex_s }
%struct.__pthread_mutex_s = type { i32, i32, i32, i32, i32, i16, i16, %struct.__pthread_internal_list }
%struct.__pthread_internal_list = type { ptr, ptr }
%struct.dt_iop_lut3d_params_t = type { [512 x i8], i32, i32, i32, [12288 x i8], [128 x i8] }
%struct.dt_dev_pixelpipe_iop_t = type { ptr, ptr, ptr, ptr, i32, i32, %struct.dt_dev_histogram_collection_params_t, ptr, %struct.dt_dev_histogram_stats_t, [4 x i32], float, i32, i32, i64, i32, i32, %struct.dt_iop_roi_t, %struct.dt_iop_roi_t, %struct.dt_iop_roi_t, %struct.dt_iop_roi_t, i32, i32, %struct.dt_iop_buffer_dsc_t, %struct.dt_iop_buffer_dsc_t, ptr, [8 x i8] }
%struct.dt_dev_histogram_collection_params_t = type { ptr, i32 }
%struct.dt_dev_histogram_stats_t = type { i32, i64, i32, i32 }
%struct.dt_iop_roi_t = type { i32, i32, i32, i32, float }
%struct.dt_iop_buffer_dsc_t = type { i32, i32, i32, [6 x [6 x i8]], %struct.anon, [12 x i8], %struct.anon.0, [4 x float], i32, [12 x i8] }
%struct.anon = type { i16, i16 }
%struct.anon.0 = type { i32, [12 x i8], [4 x float] }
%struct.dt_iop_lut3d_data_t = type { %struct.dt_iop_lut3d_params_t, ptr, i16 }
%struct.dt_iop_module_t = type { i32, ptr, ptr, ptr, ptr, ptr, ptr, ptr, ptr, ptr, ptr, ptr, ptr, ptr, ptr, ptr, ptr, ptr, ptr, ptr, ptr, ptr, ptr, ptr, ptr, ptr, ptr, ptr, ptr, ptr, ptr, ptr, ptr, ptr, ptr, ptr, ptr, ptr, ptr, ptr, ptr, ptr, ptr, ptr, ptr, ptr, ptr, ptr, ptr, ptr, ptr, ptr, ptr, ptr, ptr, ptr, ptr, [20 x i8], i32, i32, i32, i32, i32, i32, i32, [8 x i8], [4 x float], [4 x float], [4 x float], [4 x float], [4 x float], [4 x float], ptr, %struct.dt_dev_histogram_stats_t, [4 x i32], i32, i32, ptr, i32, i32, ptr, ptr, i32, ptr, %struct.dt_pthread_mutex_t, ptr, ptr, ptr, ptr, %struct.anon.1, ptr, ptr, ptr, ptr, ptr, ptr, ptr, i32, ptr, ptr, ptr, ptr, ptr, ptr, ptr, i32, ptr, i32, [128 x i8], i32, ptr, ptr, i32, [12 x i8] }
%struct.anon.1 = type { %struct.anon.2, %struct.anon.3 }
%struct.anon.2 = type { ptr, ptr }
%struct.anon.3 = type { ptr, i32 }
%struct.dt_develop_t = type { i32, i32, i32, ptr, double, double, i32, i32, i32, i32, i32, double, i32, i32, i32, ptr, ptr, [8 x i8], %struct.dt_image_t, i32, i32, %struct.dt_pthread_mutex_t, i32, ptr, i32, ptr, i32, ptr, ptr, i32, ptr, ptr, ptr, ptr, i32, i32, ptr, ptr, ptr, ptr, i32, i32, i32, float, float, ptr, i32, %struct.anon.8, %struct.dt_dev_chroma_t, %struct.anon.11, %struct.anon.12, %struct.anon.13, %struct.anon.14, %struct.anon.15, %struct.anon.16, ptr, ptr, %struct.dt_dev_viewport_t, %struct.dt_dev_viewport_t, i32, i32, i32, ptr, [8 x i8] }
%struct.dt_image_t = type { i32, i32, float, float, float, float, float, float, float, [64 x i8], [64 x i8], [128 x i8], [64 x i8], [64 x i8], [64 x i8], [64 x i8], i64, i32, %union.dt_image_correction_data_t, [64 x i8], [64 x i8], [64 x i8], [128 x i8], i32, [256 x i8], i32, i32, i32, i32, i32, i32, i32, i32, i32, i32, float, i32, i32, i32, i32, i32, i32, i64, i64, i64, i64, i32, [12 x i8], %struct.dt_iop_buffer_dsc_t, [9 x float], ptr, i32, i32, %struct.dt_image_raw_parameters_t, %struct.dt_image_geoloc_t, %struct._color_harmony_t, i16, [4 x i16], i32, i32, float, float, [4 x float], [4 x [3 x float]], [4 x float], ptr, ptr, i32, i32, [8 x i8] }
%union.dt_image_correction_data_t = type { %struct.anon.5 }
%struct.anon.5 = type { i32, float, [11 x float], [11 x float], [11 x float], [11 x float], [11 x float] }
%struct.dt_image_raw_parameters_t = type { i32 }
%struct.dt_image_geoloc_t = type { double, double, double }
%struct._color_harmony_t = type { i32, i32, i32 }
%struct.anon.8 = type { %struct.dt_dev_proxy_exposure_t, ptr, %struct.anon.9, %struct.anon.10 }
%struct.dt_dev_proxy_exposure_t = type { ptr, ptr, ptr, ptr }
%struct.anon.9 = type { ptr, ptr, ptr, ptr, ptr, ptr, ptr, ptr, ptr }
%struct.anon.10 = type { ptr, ptr, ptr, ptr, ptr }
%struct.dt_dev_chroma_t = type { ptr, ptr, [4 x double], [4 x double], [4 x double], i32 }
%struct.anon.11 = type { ptr, ptr, ptr }
%struct.anon.12 = type { ptr, ptr, i32, i32, float, float, i32 }
%struct.anon.13 = type { ptr, ptr, i32, i32, i32, float }
%struct.anon.14 = type { ptr }
%struct.anon.15 = type { ptr, i32 }
%struct.anon.16 = type { ptr, ptr, ptr }
%struct.dt_dev_viewport_t = type { ptr, i32, i32, i32, i32, i32, double, double, double, i32, i32, i32, float, float, float, ptr }

@.str.68 = private unnamed_addr constant [1 x i8] zeroinitializer, align 1
@.str.69 = private unnamed_addr constant [28 x i8] c"work profile to LUT profile\00", align 1
@.str.70 = private unnamed_addr constant [28 x i8] c"LUT profile to work profile\00", align 1

; Function Attrs: inlinehint nounwind uwtable
define internal void @dt_iop_image_copy_by_size(ptr noalias noundef %0, ptr noalias noundef %1, i64 noundef %2, i64 noundef %3, i64 noundef %4) #8 {
  %6 = alloca ptr, align 8
  %7 = alloca ptr, align 8
  %8 = alloca i64, align 8
  %9 = alloca i64, align 8
  %10 = alloca i64, align 8
  store ptr %0, ptr %6, align 8, !tbaa !33
  store ptr %1, ptr %7, align 8, !tbaa !33
  store i64 %2, ptr %8, align 8, !tbaa !35
  store i64 %3, ptr %9, align 8, !tbaa !35
  store i64 %4, ptr %10, align 8, !tbaa !35
  %11 = load ptr, ptr %6, align 8, !tbaa !33
  %12 = load ptr, ptr %7, align 8, !tbaa !33
  %13 = load i64, ptr %8, align 8, !tbaa !35
  %14 = load i64, ptr %9, align 8, !tbaa !35
  %15 = mul i64 %13, %14
  %16 = load i64, ptr %10, align 8, !tbaa !35
  %17 = mul i64 %15, %16
  call void @dt_iop_image_copy(ptr noundef %11, ptr noundef %12, i64 noundef %17)
  ret void
}

; Function Attrs: nounwind uwtable
define void @process(ptr noundef %0, ptr noundef %1, ptr noundef %2, ptr noundef %3, ptr noundef %4, ptr noundef %5) #0 {
  %7 = alloca ptr, align 8
  %8 = alloca ptr, align 8
  %9 = alloca ptr, align 8
  %10 = alloca ptr, align 8
  %11 = alloca ptr, align 8
  %12 = alloca ptr, align 8
  %13 = alloca ptr, align 8
  %14 = alloca i32, align 4
  %15 = alloca i32, align 4
  %16 = alloca i32, align 4
  %17 = alloca ptr, align 8
  %18 = alloca i16, align 2
  %19 = alloca i32, align 4
  %20 = alloca i32, align 4
  %21 = alloca ptr, align 8
  %22 = alloca ptr, align 8
  %23 = alloca i32, align 4
  store ptr %0, ptr %7, align 8, !tbaa !6
  store ptr %1, ptr %8, align 8, !tbaa !13
  store ptr %2, ptr %9, align 8, !tbaa !15
  store ptr %3, ptr %10, align 8, !tbaa !15
  store ptr %4, ptr %11, align 8, !tbaa !98
  store ptr %5, ptr %12, align 8, !tbaa !98
  call void @llvm.lifetime.start.p0(i64 8, ptr %13) #13
  %24 = load ptr, ptr %8, align 8, !tbaa !13
  %25 = getelementptr inbounds nuw %struct.dt_dev_pixelpipe_iop_t, ptr %24, i32 0, i32 2
  %26 = load ptr, ptr %25, align 16, !tbaa !100
  store ptr %26, ptr %13, align 8, !tbaa !110
  call void @llvm.lifetime.start.p0(i64 4, ptr %14) #13
  %27 = load ptr, ptr %11, align 8, !tbaa !98
  %28 = getelementptr inbounds nuw %struct.dt_iop_roi_t, ptr %27, i32 0, i32 2
  %29 = load i32, ptr %28, align 4, !tbaa !112
  store i32 %29, ptr %14, align 4, !tbaa !16
  call void @llvm.lifetime.start.p0(i64 4, ptr %15) #13
  %30 = load ptr, ptr %11, align 8, !tbaa !98
  %31 = getelementptr inbounds nuw %struct.dt_iop_roi_t, ptr %30, i32 0, i32 3
  %32 = load i32, ptr %31, align 4, !tbaa !113
  store i32 %32, ptr %15, align 4, !tbaa !16
  call void @llvm.lifetime.start.p0(i64 4, ptr %16) #13
  %33 = load ptr, ptr %8, align 8, !tbaa !13
  %34 = getelementptr inbounds nuw %struct.dt_dev_pixelpipe_iop_t, ptr %33, i32 0, i32 15
  %35 = load i32, ptr %34, align 4, !tbaa !114
  store i32 %35, ptr %16, align 4, !tbaa !16
  call void @llvm.lifetime.start.p0(i64 8, ptr %17) #13
  %36 = load ptr, ptr %13, align 8, !tbaa !110
  %37 = getelementptr inbounds nuw %struct.dt_iop_lut3d_data_t, ptr %36, i32 0, i32 1
  %38 = load ptr, ptr %37, align 8, !tbaa !115
  store ptr %38, ptr %17, align 8, !tbaa !33
  call void @llvm.lifetime.start.p0(i64 2, ptr %18) #13
  %39 = load ptr, ptr %13, align 8, !tbaa !110
  %40 = getelementptr inbounds nuw %struct.dt_iop_lut3d_data_t, ptr %39, i32 0, i32 2
  %41 = load i16, ptr %40, align 8, !tbaa !117
  store i16 %41, ptr %18, align 2, !tbaa !37
  call void @llvm.lifetime.start.p0(i64 4, ptr %19) #13
  %42 = load ptr, ptr %13, align 8, !tbaa !110
  %43 = getelementptr inbounds nuw %struct.dt_iop_lut3d_data_t, ptr %42, i32 0, i32 0
  %44 = getelementptr inbounds nuw %struct.dt_iop_lut3d_params_t, ptr %43, i32 0, i32 2
  %45 = load i32, ptr %44, align 4, !tbaa !118
  store i32 %45, ptr %19, align 4, !tbaa !16
  call void @llvm.lifetime.start.p0(i64 4, ptr %20) #13
  %46 = load ptr, ptr %13, align 8, !tbaa !110
  %47 = getelementptr inbounds nuw %struct.dt_iop_lut3d_data_t, ptr %46, i32 0, i32 0
  %48 = getelementptr inbounds nuw %struct.dt_iop_lut3d_params_t, ptr %47, i32 0, i32 1
  %49 = load i32, ptr %48, align 8, !tbaa !119
  %50 = icmp eq i32 %49, 0
  br i1 %50, label %51, label %52

51:                                               ; preds = %6
  br label %86

52:                                               ; preds = %6
  %53 = load ptr, ptr %13, align 8, !tbaa !110
  %54 = getelementptr inbounds nuw %struct.dt_iop_lut3d_data_t, ptr %53, i32 0, i32 0
  %55 = getelementptr inbounds nuw %struct.dt_iop_lut3d_params_t, ptr %54, i32 0, i32 1
  %56 = load i32, ptr %55, align 8, !tbaa !119
  %57 = icmp eq i32 %56, 2
  br i1 %57, label %58, label %59

58:                                               ; preds = %52
  br label %84

59:                                               ; preds = %52
  %60 = load ptr, ptr %13, align 8, !tbaa !110
  %61 = getelementptr inbounds nuw %struct.dt_iop_lut3d_data_t, ptr %60, i32 0, i32 0
  %62 = getelementptr inbounds nuw %struct.dt_iop_lut3d_params_t, ptr %61, i32 0, i32 1
  %63 = load i32, ptr %62, align 8, !tbaa !119
  %64 = icmp eq i32 %63, 1
  br i1 %64, label %65, label %66

65:                                               ; preds = %59
  br label %82

66:                                               ; preds = %59
  %67 = load ptr, ptr %13, align 8, !tbaa !110
  %68 = getelementptr inbounds nuw %struct.dt_iop_lut3d_data_t, ptr %67, i32 0, i32 0
  %69 = getelementptr inbounds nuw %struct.dt_iop_lut3d_params_t, ptr %68, i32 0, i32 1
  %70 = load i32, ptr %69, align 8, !tbaa !119
  %71 = icmp eq i32 %70, 5
  br i1 %71, label %72, label %73

72:                                               ; preds = %66
  br label %80

73:                                               ; preds = %66
  %74 = load ptr, ptr %13, align 8, !tbaa !110
  %75 = getelementptr inbounds nuw %struct.dt_iop_lut3d_data_t, ptr %74, i32 0, i32 0
  %76 = getelementptr inbounds nuw %struct.dt_iop_lut3d_params_t, ptr %75, i32 0, i32 1
  %77 = load i32, ptr %76, align 8, !tbaa !119
  %78 = icmp eq i32 %77, 3
  %79 = select i1 %78, i32 3, i32 4
  br label %80

80:                                               ; preds = %73, %72
  %81 = phi i32 [ 21, %72 ], [ %79, %73 ]
  br label %82

82:                                               ; preds = %80, %65
  %83 = phi i32 [ 2, %65 ], [ %81, %80 ]
  br label %84

84:                                               ; preds = %82, %58
  %85 = phi i32 [ 20, %58 ], [ %83, %82 ]
  br label %86

86:                                               ; preds = %84, %51
  %87 = phi i32 [ 1, %51 ], [ %85, %84 ]
  store i32 %87, ptr %20, align 4, !tbaa !16
  call void @llvm.lifetime.start.p0(i64 8, ptr %21) #13
  %88 = load ptr, ptr %7, align 8, !tbaa !6
  %89 = getelementptr inbounds nuw %struct.dt_iop_module_t, ptr %88, i32 0, i32 77
  %90 = load ptr, ptr %89, align 8, !tbaa !120
  %91 = load i32, ptr %20, align 4, !tbaa !16
  %92 = call ptr @dt_ioppr_add_profile_info_to_list(ptr noundef %90, i32 noundef %91, ptr noundef @.str.68, i32 noundef 0)
  store ptr %92, ptr %21, align 8, !tbaa !130
  call void @llvm.lifetime.start.p0(i64 8, ptr %22) #13
  %93 = load ptr, ptr %7, align 8, !tbaa !6
  %94 = load ptr, ptr %7, align 8, !tbaa !6
  %95 = getelementptr inbounds nuw %struct.dt_iop_module_t, ptr %94, i32 0, i32 77
  %96 = load ptr, ptr %95, align 8, !tbaa !120
  %97 = getelementptr inbounds nuw %struct.dt_develop_t, ptr %96, i32 0, i32 27
  %98 = load ptr, ptr %97, align 8, !tbaa !132
  %99 = call ptr @dt_ioppr_get_iop_work_profile_info(ptr noundef %93, ptr noundef %98)
  store ptr %99, ptr %22, align 8, !tbaa !130
  call void @llvm.lifetime.start.p0(i64 4, ptr %23) #13
  %100 = load ptr, ptr %22, align 8, !tbaa !130
  %101 = icmp ne ptr %100, null
  br i1 %101, label %102, label %105

102:                                              ; preds = %86
  %103 = load ptr, ptr %21, align 8, !tbaa !130
  %104 = icmp ne ptr %103, null
  br label %105

105:                                              ; preds = %102, %86
  %106 = phi i1 [ false, %86 ], [ %104, %102 ]
  %107 = select i1 %106, i32 1, i32 0
  store i32 %107, ptr %23, align 4, !tbaa !16
  %108 = load ptr, ptr %17, align 8, !tbaa !33
  %109 = icmp ne ptr %108, null
  br i1 %109, label %110, label %202

110:                                              ; preds = %105
  %111 = load i32, ptr %23, align 4, !tbaa !16
  %112 = icmp ne i32 %111, 0
  br i1 %112, label %113, label %163

113:                                              ; preds = %110
  %114 = load ptr, ptr %9, align 8, !tbaa !15
  %115 = load ptr, ptr %10, align 8, !tbaa !15
  %116 = load i32, ptr %14, align 4, !tbaa !16
  %117 = load i32, ptr %15, align 4, !tbaa !16
  %118 = load ptr, ptr %22, align 8, !tbaa !130
  %119 = load ptr, ptr %21, align 8, !tbaa !130
  call void @dt_ioppr_transform_image_colorspace_rgb(ptr noundef %114, ptr noundef %115, i32 noundef %116, i32 noundef %117, ptr noundef %118, ptr noundef %119, ptr noundef @.str.69)
  %120 = load i32, ptr %19, align 4, !tbaa !16
  %121 = icmp eq i32 %120, 0
  br i1 %121, label %122, label %132

122:                                              ; preds = %113
  %123 = load ptr, ptr %10, align 8, !tbaa !15
  %124 = load ptr, ptr %10, align 8, !tbaa !15
  %125 = load i32, ptr %14, align 4, !tbaa !16
  %126 = sext i32 %125 to i64
  %127 = load i32, ptr %15, align 4, !tbaa !16
  %128 = sext i32 %127 to i64
  %129 = mul i64 %126, %128
  %130 = load ptr, ptr %17, align 8, !tbaa !33
  %131 = load i16, ptr %18, align 2, !tbaa !37
  call void @correct_pixel_tetrahedral(ptr noundef %123, ptr noundef %124, i64 noundef %129, ptr noundef %130, i16 noundef zeroext %131)
  br label %156

132:                                              ; preds = %113
  %133 = load i32, ptr %19, align 4, !tbaa !16
  %134 = icmp eq i32 %133, 1
  br i1 %134, label %135, label %145

135:                                              ; preds = %132
  %136 = load ptr, ptr %10, align 8, !tbaa !15
  %137 = load ptr, ptr %10, align 8, !tbaa !15
  %138 = load i32, ptr %14, align 4, !tbaa !16
  %139 = sext i32 %138 to i64
  %140 = load i32, ptr %15, align 4, !tbaa !16
  %141 = sext i32 %140 to i64
  %142 = mul i64 %139, %141
  %143 = load ptr, ptr %17, align 8, !tbaa !33
  %144 = load i16, ptr %18, align 2, !tbaa !37
  call void @correct_pixel_trilinear(ptr noundef %136, ptr noundef %137, i64 noundef %142, ptr noundef %143, i16 noundef zeroext %144)
  br label %155

145:                                              ; preds = %132
  %146 = load ptr, ptr %10, align 8, !tbaa !15
  %147 = load ptr, ptr %10, align 8, !tbaa !15
  %148 = load i32, ptr %14, align 4, !tbaa !16
  %149 = sext i32 %148 to i64
  %150 = load i32, ptr %15, align 4, !tbaa !16
  %151 = sext i32 %150 to i64
  %152 = mul i64 %149, %151
  %153 = load ptr, ptr %17, align 8, !tbaa !33
  %154 = load i16, ptr %18, align 2, !tbaa !37
  call void @correct_pixel_pyramid(ptr noundef %146, ptr noundef %147, i64 noundef %152, ptr noundef %153, i16 noundef zeroext %154)
  br label %155

155:                                              ; preds = %145, %135
  br label %156

156:                                              ; preds = %155, %122
  %157 = load ptr, ptr %10, align 8, !tbaa !15
  %158 = load ptr, ptr %10, align 8, !tbaa !15
  %159 = load i32, ptr %14, align 4, !tbaa !16
  %160 = load i32, ptr %15, align 4, !tbaa !16
  %161 = load ptr, ptr %21, align 8, !tbaa !130
  %162 = load ptr, ptr %22, align 8, !tbaa !130
  call void @dt_ioppr_transform_image_colorspace_rgb(ptr noundef %157, ptr noundef %158, i32 noundef %159, i32 noundef %160, ptr noundef %161, ptr noundef %162, ptr noundef @.str.70)
  br label %201

163:                                              ; preds = %110
  %164 = load i32, ptr %19, align 4, !tbaa !16
  %165 = icmp eq i32 %164, 0
  br i1 %165, label %166, label %176

166:                                              ; preds = %163
  %167 = load ptr, ptr %9, align 8, !tbaa !15
  %168 = load ptr, ptr %10, align 8, !tbaa !15
  %169 = load i32, ptr %14, align 4, !tbaa !16
  %170 = sext i32 %169 to i64
  %171 = load i32, ptr %15, align 4, !tbaa !16
  %172 = sext i32 %171 to i64
  %173 = mul i64 %170, %172
  %174 = load ptr, ptr %17, align 8, !tbaa !33
  %175 = load i16, ptr %18, align 2, !tbaa !37
  call void @correct_pixel_tetrahedral(ptr noundef %167, ptr noundef %168, i64 noundef %173, ptr noundef %174, i16 noundef zeroext %175)
  br label %200

176:                                              ; preds = %163
  %177 = load i32, ptr %19, align 4, !tbaa !16
  %178 = icmp eq i32 %177, 1
  br i1 %178, label %179, label %189

179:                                              ; preds = %176
  %180 = load ptr, ptr %9, align 8, !tbaa !15
  %181 = load ptr, ptr %10, align 8, !tbaa !15
  %182 = load i32, ptr %14, align 4, !tbaa !16
  %183 = sext i32 %182 to i64
  %184 = load i32, ptr %15, align 4, !tbaa !16
  %185 = sext i32 %184 to i64
  %186 = mul i64 %183, %185
  %187 = load ptr, ptr %17, align 8, !tbaa !33
  %188 = load i16, ptr %18, align 2, !tbaa !37
  call void @correct_pixel_trilinear(ptr noundef %180, ptr noundef %181, i64 noundef %186, ptr noundef %187, i16 noundef zeroext %188)
  br label %199

189:                                              ; preds = %176
  %190 = load ptr, ptr %9, align 8, !tbaa !15
  %191 = load ptr, ptr %10, align 8, !tbaa !15
  %192 = load i32, ptr %14, align 4, !tbaa !16
  %193 = sext i32 %192 to i64
  %194 = load i32, ptr %15, align 4, !tbaa !16
  %195 = sext i32 %194 to i64
  %196 = mul i64 %193, %195
  %197 = load ptr, ptr %17, align 8, !tbaa !33
  %198 = load i16, ptr %18, align 2, !tbaa !37
  call void @correct_pixel_pyramid(ptr noundef %190, ptr noundef %191, i64 noundef %196, ptr noundef %197, i16 noundef zeroext %198)
  br label %199

199:                                              ; preds = %189, %179
  br label %200

200:                                              ; preds = %199, %166
  br label %201

201:                                              ; preds = %200, %156
  br label %211

202:                                              ; preds = %105
  %203 = load ptr, ptr %10, align 8, !tbaa !15
  %204 = load ptr, ptr %9, align 8, !tbaa !15
  %205 = load i32, ptr %14, align 4, !tbaa !16
  %206 = sext i32 %205 to i64
  %207 = load i32, ptr %15, align 4, !tbaa !16
  %208 = sext i32 %207 to i64
  %209 = load i32, ptr %16, align 4, !tbaa !16
  %210 = sext i32 %209 to i64
  call void @dt_iop_image_copy_by_size(ptr noundef %203, ptr noundef %204, i64 noundef %206, i64 noundef %208, i64 noundef %210)
  br label %211

211:                                              ; preds = %202, %201
  call void @llvm.lifetime.end.p0(i64 4, ptr %23) #13
  call void @llvm.lifetime.end.p0(i64 8, ptr %22) #13
  call void @llvm.lifetime.end.p0(i64 8, ptr %21) #13
  call void @llvm.lifetime.end.p0(i64 4, ptr %20) #13
  call void @llvm.lifetime.end.p0(i64 4, ptr %19) #13
  call void @llvm.lifetime.end.p0(i64 2, ptr %18) #13
  call void @llvm.lifetime.end.p0(i64 8, ptr %17) #13
  call void @llvm.lifetime.end.p0(i64 4, ptr %16) #13
  call void @llvm.lifetime.end.p0(i64 4, ptr %15) #13
  call void @llvm.lifetime.end.p0(i64 4, ptr %14) #13
  call void @llvm.lifetime.end.p0(i64 8, ptr %13) #13
  ret void
}