; Function Attrs: nounwind uwtable
define void @process(ptr noundef %0, ptr noundef readonly captures(none) %1, ptr noundef %2, ptr noundef %3, ptr noundef readonly captures(none) %4, ptr noundef readnone captures(none) %5) local_unnamed_addr #1 {
  %7 = getelementptr inbounds nuw i8, ptr %1, i64 16
  %8 = load ptr, ptr %7, align 16, !tbaa !76
  %9 = getelementptr inbounds nuw i8, ptr %4, i64 8
  %10 = load i32, ptr %9, align 4, !tbaa !89
  %11 = getelementptr inbounds nuw i8, ptr %4, i64 12
  %12 = load i32, ptr %11, align 4, !tbaa !90
  %13 = getelementptr inbounds nuw i8, ptr %1, i64 132
  %14 = load i32, ptr %13, align 4, !tbaa !91
  %15 = getelementptr inbounds nuw i8, ptr %8, i64 12944
  %16 = load ptr, ptr %15, align 8, !tbaa !92
  %17 = getelementptr inbounds nuw i8, ptr %8, i64 12952
  %18 = load i16, ptr %17, align 8, !tbaa !94
  %19 = getelementptr inbounds nuw i8, ptr %8, i64 516
  %20 = load i32, ptr %19, align 4, !tbaa !95
  %21 = getelementptr inbounds nuw i8, ptr %8, i64 512
  %22 = load i32, ptr %21, align 8, !tbaa !96
  %23 = icmp ult i32 %22, 6
  br i1 %23, label %switch.hole_check, label %24

24:                                               ; preds = %switch.hole_check, %6
  %25 = icmp eq i32 %22, 3
  %26 = select i1 %25, i32 3, i32 4
  br label %28

switch.hole_check:                                ; preds = %6
  %switch.maskindex = trunc nuw i32 %22 to i8
  %switch.shifted = lshr i8 39, %switch.maskindex
  %switch.lobit = trunc i8 %switch.shifted to i1
  br i1 %switch.lobit, label %switch.lookup, label %24

switch.lookup:                                    ; preds = %switch.hole_check
  %27 = zext nneg i32 %22 to i64
  %switch.gep = getelementptr inbounds nuw [6 x i32], ptr @switch.table.process, i64 0, i64 %27
  %switch.load = load i32, ptr %switch.gep, align 4
  br label %28

28:                                               ; preds = %switch.lookup, %24
  %29 = phi i32 [ %26, %24 ], [ %switch.load, %switch.lookup ]
  %30 = getelementptr inbounds nuw i8, ptr %0, i64 664
  %31 = load ptr, ptr %30, align 8, !tbaa !97
  %32 = tail call ptr @dt_ioppr_add_profile_info_to_list(ptr noundef %31, i32 noundef %29, ptr noundef nonnull @.str.68, i32 noundef 0) #25
  %33 = load ptr, ptr %30, align 8, !tbaa !97
  %34 = getelementptr inbounds nuw i8, ptr %33, i64 2056
  %35 = load ptr, ptr %34, align 8, !tbaa !107
  %36 = tail call ptr @dt_ioppr_get_iop_work_profile_info(ptr noundef %0, ptr noundef %35) #25
  %.not = icmp eq ptr %16, null
  br i1 %.not, label %56, label %37

37:                                               ; preds = %28
  %38 = icmp ne ptr %36, null
  %39 = icmp ne ptr %32, null
  %40 = select i1 %38, i1 %39, i1 false
  br i1 %40, label %41, label %49

41:                                               ; preds = %37
  tail call void @dt_ioppr_transform_image_colorspace_rgb(ptr noundef %2, ptr noundef %3, i32 noundef %10, i32 noundef %12, ptr noundef nonnull %36, ptr noundef nonnull %32, ptr noundef nonnull @.str.69) #25
  %42 = sext i32 %10 to i64
  %43 = sext i32 %12 to i64
  %44 = mul nsw i64 %43, %42
  switch i32 %20, label %47 [
    i32 0, label %45
    i32 1, label %46
  ]

45:                                               ; preds = %41
  tail call void @correct_pixel_tetrahedral(ptr noundef %3, ptr noundef %3, i64 noundef %44, ptr noundef nonnull %16, i16 noundef zeroext %18)
  br label %48

46:                                               ; preds = %41
  tail call void @correct_pixel_trilinear(ptr noundef %3, ptr noundef %3, i64 noundef %44, ptr noundef nonnull %16, i16 noundef zeroext %18)
  br label %48

47:                                               ; preds = %41
  tail call void @correct_pixel_pyramid(ptr noundef %3, ptr noundef %3, i64 noundef %44, ptr noundef nonnull %16, i16 noundef zeroext %18)
  br label %48

48:                                               ; preds = %46, %47, %45
  tail call void @dt_ioppr_transform_image_colorspace_rgb(ptr noundef %3, ptr noundef %3, i32 noundef %10, i32 noundef %12, ptr noundef nonnull %32, ptr noundef nonnull %36, ptr noundef nonnull @.str.70) #25
  br label %62

49:                                               ; preds = %37
  %50 = sext i32 %10 to i64
  %51 = sext i32 %12 to i64
  %52 = mul nsw i64 %51, %50
  switch i32 %20, label %55 [
    i32 0, label %53
    i32 1, label %54
  ]

53:                                               ; preds = %49
  tail call void @correct_pixel_tetrahedral(ptr noundef %2, ptr noundef %3, i64 noundef %52, ptr noundef nonnull %16, i16 noundef zeroext %18)
  br label %62

54:                                               ; preds = %49
  tail call void @correct_pixel_trilinear(ptr noundef %2, ptr noundef %3, i64 noundef %52, ptr noundef nonnull %16, i16 noundef zeroext %18)
  br label %62

55:                                               ; preds = %49
  tail call void @correct_pixel_pyramid(ptr noundef %2, ptr noundef %3, i64 noundef %52, ptr noundef nonnull %16, i16 noundef zeroext %18)
  br label %62

56:                                               ; preds = %28
  %57 = sext i32 %10 to i64
  %58 = sext i32 %12 to i64
  %59 = sext i32 %14 to i64
  %60 = mul nsw i64 %58, %57
  %61 = mul i64 %60, %59
  tail call void @dt_iop_image_copy(ptr noundef %3, ptr noundef %2, i64 noundef %61) #25
  br label %62

62:                                               ; preds = %48, %54, %55, %53, %56
  ret void
}